Certificate:
    Data:
        Version: 3 (0x2)
        Serial Number:
            1f:04:30:60:b6:2d:bf:e8:db:de:31:eb:0f:31:13:f0
        Signature Algorithm: sha256WithRSAEncryption
        Issuer: CN=VPNSERVER
        Validity
            Not Before: Apr 27 01:58:14 2022 GMT
            Not After : Jul 30 01:58:14 2024 GMT
        Subject: CN=clientevpn
        Subject Public Key Info:
            Public Key Algorithm: rsaEncryption
                RSA Public-Key: (2048 bit)
                Modulus:
                    00:dc:2e:1b:80:27:d0:61:56:49:d5:4b:55:e2:58:
                    a9:e4:12:db:2d:a3:1d:1d:77:7a:de:ad:8a:fd:bf:
                    34:9f:b0:67:ac:ab:9b:d7:91:60:78:54:72:ae:73:
                    16:61:a1:55:a3:33:46:74:47:5d:22:19:68:0d:d3:
                    18:16:70:f7:f4:f7:47:98:f6:1b:d2:09:52:4b:c9:
                    08:05:12:45:3e:1a:39:89:78:ab:42:56:5e:85:39:
                    cb:ac:be:d2:92:19:10:c6:48:18:5c:35:e5:b3:97:
                    b1:46:ac:17:48:08:b8:e9:0f:74:dc:00:1f:06:02:
                    7c:f1:6b:62:d3:24:38:d0:5a:2c:31:04:6f:3c:59:
                    9e:14:9c:35:4d:9d:dd:23:08:60:99:a2:cd:10:c0:
                    90:49:4d:ae:ef:a7:b9:b7:5a:1b:ba:a1:53:1a:e4:
                    6a:0b:04:78:af:d0:6e:02:d2:08:bd:8f:19:ee:35:
                    6a:ba:ce:30:92:9f:de:bb:c5:02:5f:5b:b3:b7:4f:
                    22:59:f5:c1:fb:a6:d0:c5:ee:0c:a8:86:98:df:e2:
                    e4:cd:ad:28:4a:fb:e7:85:05:1e:9b:61:dc:df:fa:
                    67:d4:6b:18:dc:f5:8d:41:04:52:51:82:1c:40:1c:
                    86:c2:dc:49:d0:3a:7f:0e:ea:d6:c7:7c:54:18:84:
                    30:2b
                Exponent: 65537 (0x10001)
        X509v3 extensions:
            X509v3 Basic Constraints: 
                CA:FALSE
            X509v3 Subject Key Identifier: 
                03:CF:66:17:57:9C:47:B1:22:9B:DF:96:B2:4E:DE:79:D2:46:8A:CA
            X509v3 Authority Key Identifier: 
                keyid:74:65:85:D6:ED:04:07:2F:02:27:26:70:D5:63:19:3D:49:E6:FC:A1
                DirName:/CN=VPNSERVER
                serial:18:25:C7:38:67:67:6B:24:B4:9E:07:75:70:46:9D:3D:07:DB:1B:71

            X509v3 Extended Key Usage: 
                TLS Web Client Authentication
            X509v3 Key Usage: 
                Digital Signature
    Signature Algorithm: sha256WithRSAEncryption
         5a:d9:93:e2:ef:84:19:c2:08:31:81:c1:7e:5e:16:9b:b8:4e:
         54:e2:f6:5e:bf:c6:eb:da:c7:f3:75:18:23:b0:33:07:82:ee:
         ab:42:b0:4e:78:2a:cb:cd:2b:f9:15:84:71:51:8f:f1:fb:4d:
         f8:27:83:7a:b7:d1:33:23:10:26:9f:a6:fc:fb:79:78:5a:70:
         4a:2a:6a:e1:6d:c1:b6:f4:29:12:a6:90:99:63:fa:bc:88:e1:
         1c:8a:88:e8:22:2b:77:5d:7f:e7:f8:d0:81:21:c7:57:10:38:
         e5:2b:19:01:d2:5f:b8:de:fa:d2:fa:b6:08:8f:7c:56:03:42:
         8a:1f:cc:50:6c:57:2f:26:0c:79:1d:29:63:08:58:ec:b7:a1:
         a6:a5:3c:e0:36:6c:eb:23:a0:d3:2e:c1:39:f2:15:00:5f:eb:
         d4:01:70:f0:5e:a2:82:7b:bf:39:68:72:f5:e7:66:db:ce:01:
         65:a2:60:86:c1:17:53:94:31:b7:b1:7c:9a:0c:bc:4f:39:f2:
         36:44:da:65:13:6e:a2:50:fd:8e:3c:d2:0e:e4:92:b8:94:54:
         54:86:99:da:fd:a5:26:f4:7d:2b:30:ec:3a:9a:ea:2e:8a:74:
         8e:32:dd:ee:14:45:ed:4c:d4:26:3e:4a:a5:1b:2c:d0:82:43:
         76:48:09:38
-----BEGIN CERTIFICATE-----
MIIDVDCCAjygAwIBAgIQHwQwYLYtv+jb3jHrDzET8DANBgkqhkiG9w0BAQsFADAU
MRIwEAYDVQQDDAlWUE5TRVJWRVIwHhcNMjIwNDI3MDE1ODE0WhcNMjQwNzMwMDE1
ODE0WjAVMRMwEQYDVQQDDApjbGllbnRldnBuMIIBIjANBgkqhkiG9w0BAQEFAAOC
AQ8AMIIBCgKCAQEA3C4bgCfQYVZJ1UtV4lip5BLbLaMdHXd63q2K/b80n7BnrKub
15FgeFRyrnMWYaFVozNGdEddIhloDdMYFnD39PdHmPYb0glSS8kIBRJFPho5iXir
QlZehTnLrL7SkhkQxkgYXDXls5exRqwXSAi46Q903AAfBgJ88Wti0yQ40FosMQRv
PFmeFJw1TZ3dIwhgmaLNEMCQSU2u76e5t1obuqFTGuRqCwR4r9BuAtIIvY8Z7jVq
us4wkp/eu8UCX1uzt08iWfXB+6bQxe4MqIaY3+Lkza0oSvvnhQUem2Hc3/pn1GsY
3PWNQQRSUYIcQByGwtxJ0Dp/DurWx3xUGIQwKwIDAQABo4GgMIGdMAkGA1UdEwQC
MAAwHQYDVR0OBBYEFAPPZhdXnEexIpvflrJO3nnSRorKME8GA1UdIwRIMEaAFHRl
hdbtBAcvAicmcNVjGT1J5vyhoRikFjAUMRIwEAYDVQQDDAlWUE5TRVJWRVKCFBgl
xzhnZ2sktJ4HdXBGnT0H2xtxMBMGA1UdJQQMMAoGCCsGAQUFBwMCMAsGA1UdDwQE
AwIHgDANBgkqhkiG9w0BAQsFAAOCAQEAWtmT4u+EGcIIMYHBfl4Wm7hOVOL2Xr/G
69rH83UYI7AzB4Luq0KwTngqy80r+RWEcVGP8ftN+CeDerfRMyMQJp+m/Pt5eFpw
Sipq4W3BtvQpEqaQmWP6vIjhHIqI6CIrd11/5/jQgSHHVxA45SsZAdJfuN760vq2
CI98VgNCih/MUGxXLyYMeR0pYwhY7LehpqU84DZs6yOg0y7BOfIVAF/r1AFw8F6i
gnu/OWhy9edm284BZaJghsEXU5Qxt7F8mgy8TznyNkTaZRNuolD9jjzSDuSSuJRU
VIaZ2v2lJvR9KzDsOprqLop0jjLd7hRF7UzUJj5KpRss0IJDdkgJOA==
-----END CERTIFICATE-----
