Certificate:
    Data:
        Version: 3 (0x2)
        Serial Number:
            8a:57:56:19:57:ef:76:17:6f:4d:32:82:7e:ff:cf:6f
        Signature Algorithm: sha256WithRSAEncryption
        Issuer: CN=VPNSERVER
        Validity
            Not Before: Apr 17 20:16:38 2022 GMT
            Not After : Jul 20 20:16:38 2024 GMT
        Subject: CN=VPN.SERVERNAME.COM
        Subject Public Key Info:
            Public Key Algorithm: rsaEncryption
                RSA Public-Key: (2048 bit)
                Modulus:
                    00:d9:a8:5c:34:56:70:25:9f:56:ce:2e:11:ba:1b:
                    d8:32:c7:9c:55:59:5a:97:8c:ee:38:77:a3:72:37:
                    44:b5:fd:d0:39:c4:00:8c:40:40:eb:d1:bf:5e:77:
                    f2:88:2e:46:79:31:9a:53:2d:e9:3e:42:19:0a:62:
                    31:a8:6c:b5:84:90:5e:f7:f4:de:cf:a0:24:6a:9a:
                    93:2b:06:e2:dd:68:70:36:da:6d:ce:14:7e:56:b6:
                    c3:09:77:9d:4c:e5:13:17:0a:ac:dd:d3:ff:18:98:
                    53:60:9b:4e:92:6d:03:ad:f2:35:0e:5f:7b:50:cd:
                    41:b6:75:ea:ed:86:78:f2:68:f3:23:6b:4a:12:32:
                    75:c8:3f:ae:99:40:01:17:a5:d7:85:fb:b6:d6:d6:
                    a3:a5:11:fb:c1:f6:20:a9:ba:c0:cd:9e:21:8c:f1:
                    0f:16:f2:28:aa:54:49:f1:7b:e8:2c:bf:5a:55:1e:
                    da:d8:06:45:ab:ad:da:60:20:6f:9a:2b:01:1b:f0:
                    5e:4d:52:35:7e:40:61:ec:c5:cd:e8:1b:1f:69:12:
                    e8:8a:87:0e:80:99:cc:d3:ec:a7:33:9b:80:ab:58:
                    cf:24:9b:d2:30:e1:c8:e0:a2:46:91:dc:16:3d:77:
                    3f:77:35:8a:e3:80:fe:74:30:5b:06:20:45:84:37:
                    3e:69
                Exponent: 65537 (0x10001)
        X509v3 extensions:
            X509v3 Basic Constraints: 
                CA:FALSE
            X509v3 Subject Key Identifier: 
                27:ED:E3:5D:87:62:E7:3B:B8:96:52:8A:F3:21:6C:09:F2:CF:8D:31
            X509v3 Authority Key Identifier: 
                keyid:74:65:85:D6:ED:04:07:2F:02:27:26:70:D5:63:19:3D:49:E6:FC:A1
                DirName:/CN=VPNSERVER
                serial:18:25:C7:38:67:67:6B:24:B4:9E:07:75:70:46:9D:3D:07:DB:1B:71

            X509v3 Extended Key Usage: 
                TLS Web Server Authentication
            X509v3 Key Usage: 
                Digital Signature, Key Encipherment
            X509v3 Subject Alternative Name: 
                DNS:VPN.SERVERNAME.COM
    Signature Algorithm: sha256WithRSAEncryption
         08:32:55:f2:38:2b:65:ec:59:ee:6d:96:79:cf:a7:60:fa:65:
         32:0e:d4:1e:9b:df:d9:b5:bc:17:3d:18:a5:1d:56:d4:33:04:
         19:13:2e:fe:d5:91:ad:0b:42:67:0e:af:84:81:b4:72:53:4b:
         69:6f:24:bb:ca:89:c2:dc:8a:d3:30:2a:00:f3:6b:3b:91:de:
         88:07:fa:ed:48:56:89:d0:c3:7c:4d:44:6a:9c:77:2f:c1:1b:
         bd:e6:24:3f:7a:32:5d:c9:4d:82:ed:2f:09:46:18:1a:1e:c9:
         40:69:32:fa:b4:bd:be:d4:9e:45:3f:78:98:d9:d6:5b:6c:06:
         88:2f:ea:43:ec:69:a0:76:ed:cc:01:55:cf:91:08:89:9a:97:
         24:dd:07:87:88:fc:4d:29:6d:a0:de:99:1b:43:af:c1:08:02:
         45:82:f5:67:13:6a:55:e5:41:d2:2f:81:cd:41:67:10:e0:f2:
         ac:75:da:b3:c7:f7:ea:24:b9:5d:63:19:68:f5:b4:15:18:e0:
         5c:6d:fc:2e:c7:79:e6:f8:f0:8f:68:5e:2c:bb:43:f9:ee:03:
         67:c8:b0:55:99:f9:9e:59:41:f8:31:86:6a:b2:31:d0:21:6e:
         d8:d6:08:df:e8:89:63:91:61:44:6e:11:8e:65:0f:c7:71:bc:
         49:4b:e6:3d
-----BEGIN CERTIFICATE-----
MIIDfDCCAmSgAwIBAgIRAIpXVhlX73YXb00ygn7/z28wDQYJKoZIhvcNAQELBQAw
FDESMBAGA1UEAwwJVlBOU0VSVkVSMB4XDTIyMDQxNzIwMTYzOFoXDTI0MDcyMDIw
MTYzOFowHTEbMBkGA1UEAwwSVlBOLlNFUlZFUk5BTUUuQ09NMIIBIjANBgkqhkiG
9w0BAQEFAAOCAQ8AMIIBCgKCAQEA2ahcNFZwJZ9Wzi4RuhvYMsecVVlal4zuOHej
cjdEtf3QOcQAjEBA69G/XnfyiC5GeTGaUy3pPkIZCmIxqGy1hJBe9/Tez6AkapqT
Kwbi3WhwNtptzhR+VrbDCXedTOUTFwqs3dP/GJhTYJtOkm0DrfI1Dl97UM1BtnXq
7YZ48mjzI2tKEjJ1yD+umUABF6XXhfu21tajpRH7wfYgqbrAzZ4hjPEPFvIoqlRJ
8XvoLL9aVR7a2AZFq63aYCBvmisBG/BeTVI1fkBh7MXN6BsfaRLoiocOgJnM0+yn
M5uAq1jPJJvSMOHI4KJGkdwWPXc/dzWK44D+dDBbBiBFhDc+aQIDAQABo4G/MIG8
MAkGA1UdEwQCMAAwHQYDVR0OBBYEFCft412HYuc7uJZSivMhbAnyz40xME8GA1Ud
IwRIMEaAFHRlhdbtBAcvAicmcNVjGT1J5vyhoRikFjAUMRIwEAYDVQQDDAlWUE5T
RVJWRVKCFBglxzhnZ2sktJ4HdXBGnT0H2xtxMBMGA1UdJQQMMAoGCCsGAQUFBwMB
MAsGA1UdDwQEAwIFoDAdBgNVHREEFjAUghJWUE4uU0VSVkVSTkFNRS5DT00wDQYJ
KoZIhvcNAQELBQADggEBAAgyVfI4K2XsWe5tlnnPp2D6ZTIO1B6b39m1vBc9GKUd
VtQzBBkTLv7Vka0LQmcOr4SBtHJTS2lvJLvKicLcitMwKgDzazuR3ogH+u1IVonQ
w3xNRGqcdy/BG73mJD96Ml3JTYLtLwlGGBoeyUBpMvq0vb7UnkU/eJjZ1ltsBogv
6kPsaaB27cwBVc+RCImalyTdB4eI/E0pbaDemRtDr8EIAkWC9WcTalXlQdIvgc1B
ZxDg8qx12rPH9+okuV1jGWj1tBUY4Fxt/C7Heeb48I9oXiy7Q/nuA2fIsFWZ+Z5Z
QfgxhmqyMdAhbtjWCN/oiWORYURuEY5lD8dxvElL5j0=
-----END CERTIFICATE-----
